; Function Attrs: mustprogress uwtable
define internal noundef range(i32 0, 4) i32 @_ZL28NextProtosAdvertisedCallbackP6ssl_stPPKhPjPv(ptr noundef %0, ptr noundef writeonly captures(none) %1, ptr noundef writeonly captures(none) %2, ptr readnone captures(none) %3) #10 {
  %5 = load i32, ptr @_ZL14g_config_index, align 4, !tbaa !6
  %6 = tail call noundef ptr @SSL_get_ex_data(ptr noundef %0, i32 noundef %5)
  %7 = getelementptr inbounds nuw i8, ptr %6, i64 184
  %8 = load i64, ptr %7, align 8, !tbaa !14
  %9 = icmp eq i64 %8, 0
  br i1 %9, label %14, label %10

10:                                               ; preds = %4
  %11 = getelementptr inbounds nuw i8, ptr %6, i64 176
  %12 = load ptr, ptr %11, align 8, !tbaa !45
  store ptr %12, ptr %1, align 8, !tbaa !32
  %13 = trunc i64 %8 to i32
  store i32 %13, ptr %2, align 4, !tbaa !6
  br label %14

14:                                               ; preds = %4, %10
  %.0 = phi i32 [ 0, %10 ], [ 3, %4 ]
  ret i32 %.0
}